target datalayout = "e-m:e-p270:32:32-p271:32:32-p272:64:64-i64:64-i128:128-f80:128-n8:16:32:64-S128"
target triple = "x86_64-unknown-linux-gnu"

%"class.icu_75::Normalizer2DataBuilder" = type <{ %"class.icu_75::Norms", i32, i32, i32, [20 x i32], [4 x i8], ptr, i32, [4 x i8], %"class.icu_75::UnicodeString", [256 x i8], [4 x i8], [4 x i8] }>
%"class.icu_75::Norms" = type { %"class.icu_75::UnicodeSet", %"class.icu_75::UnicodeSet", ptr, ptr, ptr }
%"class.icu_75::UnicodeSet" = type <{ %"class.icu_75::UnicodeFilter", ptr, i32, i32, i8, [7 x i8], ptr, ptr, i32, [4 x i8], ptr, i32, [4 x i8], ptr, ptr, [25 x i32], [4 x i8] }>
%"class.icu_75::UnicodeFilter" = type { %"class.icu_75::UnicodeFunctor", %"class.icu_75::UnicodeMatcher" }
%"class.icu_75::UnicodeFunctor" = type { %"class.icu_75::UObject" }
%"class.icu_75::UObject" = type { ptr }
%"class.icu_75::UnicodeMatcher" = type { ptr }
%"class.icu_75::UnicodeString" = type { %"class.icu_75::Replaceable", %"union.icu_75::UnicodeString::StackBufferOrFields" }
%"class.icu_75::Replaceable" = type { %"class.icu_75::UObject" }
%"union.icu_75::UnicodeString::StackBufferOrFields" = type { %struct.anon.0, [32 x i8] }
%struct.anon.0 = type { i16, i32, i32, ptr }
%"struct.icu_75::Norm" = type { ptr, ptr, i32, i32, i32, ptr, i8, i8, i8, i8, i8, i8, i32, i32, ptr }
%"class.icu_75::BuilderReorderingBuffer" = type <{ [31 x i32], i32, i32, i8, [3 x i8] }>

; Function Attrs: mustprogress nounwind uwtable
define linkonce_odr dso_local noundef signext i8 @_ZN6icu_756Hangul7isJamoVEi(i32 noundef %c) #0 comdat align 2 {
entry:
  %c.addr = alloca i32, align 4
  store i32 %c, ptr %c.addr, align 4
  %0 = load i32, ptr %c.addr, align 4
  %sub = sub nsw i32 %0, 4449
  %cmp = icmp ult i32 %sub, 21
  %conv = zext i1 %cmp to i8
  ret i8 %conv
}

; Function Attrs: mustprogress nounwind uwtable
define linkonce_odr dso_local noundef signext i8 @_ZN6icu_756Hangul7isJamoLEi(i32 noundef %c) #0 comdat align 2 {
entry:
  %c.addr = alloca i32, align 4
  store i32 %c, ptr %c.addr, align 4
  %0 = load i32, ptr %c.addr, align 4
  %sub = sub nsw i32 %0, 4352
  %cmp = icmp ult i32 %sub, 19
  %conv = zext i1 %cmp to i8
  ret i8 %conv
}

; Function Attrs: mustprogress nounwind uwtable
define linkonce_odr dso_local noundef zeroext i8 @_ZNK6icu_7523BuilderReorderingBuffer4ccAtEi(ptr noundef nonnull align 4 dereferenceable(133) %this, i32 noundef %i) #0 comdat align 2 {
entry:
  %this.addr = alloca ptr, align 8
  %i.addr = alloca i32, align 4
  store ptr %this, ptr %this.addr, align 8
  store i32 %i, ptr %i.addr, align 4
  %this1 = load ptr, ptr %this.addr, align 8
  %fArray = getelementptr inbounds %"class.icu_75::BuilderReorderingBuffer", ptr %this1, i32 0, i32 0
  %0 = load i32, ptr %i.addr, align 4
  %idxprom = sext i32 %0 to i64
  %arrayidx = getelementptr inbounds [31 x i32], ptr %fArray, i64 0, i64 %idxprom
  %1 = load i32, ptr %arrayidx, align 4
  %conv = trunc i32 %1 to i8
  ret i8 %conv
}

; Function Attrs: mustprogress nounwind uwtable
define linkonce_odr dso_local noundef i32 @_ZNK6icu_7523BuilderReorderingBuffer6charAtEi(ptr noundef nonnull align 4 dereferenceable(133) %this, i32 noundef %i) #0 comdat align 2 {
entry:
  %this.addr = alloca ptr, align 8
  %i.addr = alloca i32, align 4
  store ptr %this, ptr %this.addr, align 8
  store i32 %i, ptr %i.addr, align 4
  %this1 = load ptr, ptr %this.addr, align 8
  %fArray = getelementptr inbounds %"class.icu_75::BuilderReorderingBuffer", ptr %this1, i32 0, i32 0
  %0 = load i32, ptr %i.addr, align 4
  %idxprom = sext i32 %0 to i64
  %arrayidx = getelementptr inbounds [31 x i32], ptr %fArray, i64 0, i64 %idxprom
  %1 = load i32, ptr %arrayidx, align 4
  %shr = ashr i32 %1, 8
  ret i32 %shr
}

; Function Attrs: mustprogress nounwind uwtable
define linkonce_odr dso_local noundef i32 @_ZNK6icu_7523BuilderReorderingBuffer6lengthEv(ptr noundef nonnull align 4 dereferenceable(133) %this) #0 comdat align 2 {
entry:
  %this.addr = alloca ptr, align 8
  store ptr %this, ptr %this.addr, align 8
  %this1 = load ptr, ptr %this.addr, align 8
  %fLength = getelementptr inbounds %"class.icu_75::BuilderReorderingBuffer", ptr %this1, i32 0, i32 1
  %0 = load i32, ptr %fLength, align 4
  ret i32 %0
}

; Function Attrs: mustprogress nounwind uwtable
define linkonce_odr dso_local noundef i32 @_ZNK6icu_7523BuilderReorderingBuffer16lastStarterIndexEv(ptr noundef nonnull align 4 dereferenceable(133) %this) #0 comdat align 2 {
entry:
  %this.addr = alloca ptr, align 8
  store ptr %this, ptr %this.addr, align 8
  %this1 = load ptr, ptr %this.addr, align 8
  %fLastStarterIndex = getelementptr inbounds %"class.icu_75::BuilderReorderingBuffer", ptr %this1, i32 0, i32 2
  %0 = load i32, ptr %fLastStarterIndex, align 4
  ret i32 %0
}

; Function Attrs: mustprogress uwtable
define dso_local noundef signext i8 @_ZNK6icu_7522Normalizer2DataBuilder17mappingRecomposesERKNS_23BuilderReorderingBufferE(ptr noundef nonnull align 8 dereferenceable(860) %this, ptr noundef nonnull align 4 dereferenceable(133) %buffer) #1 align 2 {
entry:
  %retval = alloca i8, align 1
  %this.addr = alloca ptr, align 8
  %buffer.addr = alloca ptr, align 8
  %starterNorm = alloca ptr, align 8
  %prevCC = alloca i8, align 1
  %i = alloca i32, align 4
  %c = alloca i32, align 4
  %cc = alloca i8, align 1
  store ptr %this, ptr %this.addr, align 8
  store ptr %buffer, ptr %buffer.addr, align 8
  %this1 = load ptr, ptr %this.addr, align 8
  %0 = load ptr, ptr %buffer.addr, align 8
  %call = call noundef i32 @_ZNK6icu_7523BuilderReorderingBuffer16lastStarterIndexEv(ptr noundef nonnull align 4 dereferenceable(133) %0)
  %cmp = icmp slt i32 %call, 0
  br i1 %cmp, label %if.then, label %if.end

if.then:                                          ; preds = %entry
  store i8 0, ptr %retval, align 1
  br label %return

if.end:                                           ; preds = %entry
  store ptr null, ptr %starterNorm, align 8
  store i8 0, ptr %prevCC, align 1
  store i32 0, ptr %i, align 4
  br label %for.cond

for.cond:                                         ; preds = %for.inc, %if.end
  %1 = load i32, ptr %i, align 4
  %2 = load ptr, ptr %buffer.addr, align 8
  %call2 = call noundef i32 @_ZNK6icu_7523BuilderReorderingBuffer6lengthEv(ptr noundef nonnull align 4 dereferenceable(133) %2)
  %cmp3 = icmp slt i32 %1, %call2
  br i1 %cmp3, label %for.body, label %for.end

for.body:                                         ; preds = %for.cond
  %3 = load ptr, ptr %buffer.addr, align 8
  %4 = load i32, ptr %i, align 4
  %call4 = call noundef i32 @_ZNK6icu_7523BuilderReorderingBuffer6charAtEi(ptr noundef nonnull align 4 dereferenceable(133) %3, i32 noundef %4)
  store i32 %call4, ptr %c, align 4
  %5 = load ptr, ptr %buffer.addr, align 8
  %6 = load i32, ptr %i, align 4
  %call5 = call noundef zeroext i8 @_ZNK6icu_7523BuilderReorderingBuffer4ccAtEi(ptr noundef nonnull align 4 dereferenceable(133) %5, i32 noundef %6)
  store i8 %call5, ptr %cc, align 1
  %7 = load ptr, ptr %starterNorm, align 8
  %cmp6 = icmp ne ptr %7, null
  br i1 %cmp6, label %land.lhs.true, label %if.else

land.lhs.true:                                    ; preds = %for.body
  %8 = load i8, ptr %prevCC, align 1
  %conv = zext i8 %8 to i32
  %9 = load i8, ptr %cc, align 1
  %conv7 = zext i8 %9 to i32
  %cmp8 = icmp slt i32 %conv, %conv7
  br i1 %cmp8, label %land.lhs.true11, label %lor.lhs.false

lor.lhs.false:                                    ; preds = %land.lhs.true
  %10 = load i8, ptr %prevCC, align 1
  %conv9 = zext i8 %10 to i32
  %cmp10 = icmp eq i32 %conv9, 0
  br i1 %cmp10, label %land.lhs.true11, label %if.else

land.lhs.true11:                                  ; preds = %lor.lhs.false, %land.lhs.true
  %norms = getelementptr inbounds %"class.icu_75::Normalizer2DataBuilder", ptr %this1, i32 0, i32 0
  %11 = load i32, ptr %c, align 4
  %call12 = call noundef nonnull align 8 dereferenceable(64) ptr @_ZNK6icu_755Norms10getNormRefEi(ptr noundef nonnull align 8 dereferenceable(424) %norms, i32 noundef %11)
  %combinesBack = getelementptr inbounds %"struct.icu_75::Norm", ptr %call12, i32 0, i32 9
  %12 = load i8, ptr %combinesBack, align 1
  %tobool = icmp ne i8 %12, 0
  br i1 %tobool, label %land.lhs.true13, label %if.else

land.lhs.true13:                                  ; preds = %land.lhs.true11
  %13 = load ptr, ptr %starterNorm, align 8
  %14 = load i32, ptr %c, align 4
  %call14 = call noundef i32 @_ZNK6icu_754Norm7combineEi(ptr noundef nonnull align 8 dereferenceable(64) %13, i32 noundef %14)
  %cmp15 = icmp sge i32 %call14, 0
  br i1 %cmp15, label %if.then16, label %if.else

if.then16:                                        ; preds = %land.lhs.true13
  store i8 1, ptr %retval, align 1
  br label %return

if.else:                                          ; preds = %land.lhs.true13, %land.lhs.true11, %lor.lhs.false, %for.body
  %15 = load i8, ptr %cc, align 1
  %conv17 = zext i8 %15 to i32
  %cmp18 = icmp eq i32 %conv17, 0
  br i1 %cmp18, label %if.then19, label %if.end36

if.then19:                                        ; preds = %if.else
  %16 = load i32, ptr %c, align 4
  %call20 = call noundef signext i8 @_ZN6icu_756Hangul7isJamoLEi(i32 noundef %16)
  %tobool21 = icmp ne i8 %call20, 0
  br i1 %tobool21, label %if.then22, label %if.else32

if.then22:                                        ; preds = %if.then19
  %17 = load i32, ptr %i, align 4
  %add = add nsw i32 %17, 1
  %18 = load ptr, ptr %buffer.addr, align 8
  %call23 = call noundef i32 @_ZNK6icu_7523BuilderReorderingBuffer6lengthEv(ptr noundef nonnull align 4 dereferenceable(133) %18)
  %cmp24 = icmp slt i32 %add, %call23
  br i1 %cmp24, label %land.lhs.true25, label %if.end31

land.lhs.true25:                                  ; preds = %if.then22
  %19 = load ptr, ptr %buffer.addr, align 8
  %20 = load i32, ptr %i, align 4
  %add26 = add nsw i32 %20, 1
  %call27 = call noundef i32 @_ZNK6icu_7523BuilderReorderingBuffer6charAtEi(ptr noundef nonnull align 4 dereferenceable(133) %19, i32 noundef %add26)
  %call28 = call noundef signext i8 @_ZN6icu_756Hangul7isJamoVEi(i32 noundef %call27)
  %tobool29 = icmp ne i8 %call28, 0
  br i1 %tobool29, label %if.then30, label %if.end31

if.then30:                                        ; preds = %land.lhs.true25
  store i8 1, ptr %retval, align 1
  br label %return

if.end31:                                         ; preds = %land.lhs.true25, %if.then22
  store ptr null, ptr %starterNorm, align 8
  br label %if.end35

if.else32:                                        ; preds = %if.then19
  %norms33 = getelementptr inbounds %"class.icu_75::Normalizer2DataBuilder", ptr %this1, i32 0, i32 0
  %21 = load i32, ptr %c, align 4
  %call34 = call noundef ptr @_ZNK6icu_755Norms7getNormEi(ptr noundef nonnull align 8 dereferenceable(424) %norms33, i32 noundef %21)
  store ptr %call34, ptr %starterNorm, align 8
  br label %if.end35

if.end35:                                         ; preds = %if.else32, %if.end31
  br label %if.end36

if.end36:                                         ; preds = %if.end35, %if.else
  br label %if.end37

if.end37:                                         ; preds = %if.end36
  %22 = load i8, ptr %cc, align 1
  store i8 %22, ptr %prevCC, align 1
  br label %for.inc

for.inc:                                          ; preds = %if.end37
  %23 = load i32, ptr %i, align 4
  %inc = add nsw i32 %23, 1
  store i32 %inc, ptr %i, align 4
  br label %for.cond, !llvm.loop !9

for.end:                                          ; preds = %for.cond
  store i8 0, ptr %retval, align 1
  br label %return

return:                                           ; preds = %for.end, %if.then30, %if.then16, %if.then
  %24 = load i8, ptr %retval, align 1
  ret i8 %24
}