; Function Attrs: mustprogress uwtable
define dso_local noundef signext i8 @_ZNK6icu_7522Normalizer2DataBuilder17mappingRecomposesERKNS_23BuilderReorderingBufferE(ptr noundef nonnull align 8 dereferenceable(860) %this, ptr nocapture noundef nonnull readonly align 4 dereferenceable(133) %buffer) local_unnamed_addr #1 align 2 {
entry:
  %fLastStarterIndex.i = getelementptr inbounds i8, ptr %buffer, i64 128
  %0 = load i32, ptr %fLastStarterIndex.i, align 4
  %cmp = icmp slt i32 %0, 0
  br i1 %cmp, label %return, label %for.cond.preheader

for.cond.preheader:                               ; preds = %entry
  %fLength.i = getelementptr inbounds i8, ptr %buffer, i64 124
  %1 = load i32, ptr %fLength.i, align 4
  %cmp328 = icmp sgt i32 %1, 0
  br i1 %cmp328, label %for.body, label %return

for.body:                                         ; preds = %for.cond.preheader, %if.end37
  %indvars.iv = phi i64 [ %indvars.iv.next, %if.end37 ], [ 0, %for.cond.preheader ]
  %starterNorm.031 = phi ptr [ %starterNorm.1, %if.end37 ], [ null, %for.cond.preheader ]
  %prevCC.029 = phi i8 [ %conv.i, %if.end37 ], [ 0, %for.cond.preheader ]
  %arrayidx.i = getelementptr inbounds [31 x i32], ptr %buffer, i64 0, i64 %indvars.iv
  %2 = load i32, ptr %arrayidx.i, align 4
  %shr.i = ashr i32 %2, 8
  %conv.i = trunc i32 %2 to i8
  %cmp6.not = icmp eq ptr %starterNorm.031, null
  br i1 %cmp6.not, label %if.else, label %land.lhs.true

land.lhs.true:                                    ; preds = %for.body
  %cmp8 = icmp ult i8 %prevCC.029, %conv.i
  %cmp10 = icmp eq i8 %prevCC.029, 0
  %or.cond = or i1 %cmp10, %cmp8
  br i1 %or.cond, label %land.lhs.true11, label %if.else

land.lhs.true11:                                  ; preds = %land.lhs.true
  %call12 = tail call noundef nonnull align 8 dereferenceable(64) ptr @_ZNK6icu_755Norms10getNormRefEi(ptr noundef nonnull align 8 dereferenceable(424) %this, i32 noundef %shr.i)
  %combinesBack = getelementptr inbounds i8, ptr %call12, i64 43
  %3 = load i8, ptr %combinesBack, align 1
  %tobool.not = icmp eq i8 %3, 0
  br i1 %tobool.not, label %if.else, label %land.lhs.true13

land.lhs.true13:                                  ; preds = %land.lhs.true11
  %call14 = tail call noundef i32 @_ZNK6icu_754Norm7combineEi(ptr noundef nonnull align 8 dereferenceable(64) %starterNorm.031, i32 noundef %shr.i)
  %cmp15 = icmp sgt i32 %call14, -1
  br i1 %cmp15, label %return, label %if.else

if.else:                                          ; preds = %land.lhs.true, %land.lhs.true13, %land.lhs.true11, %for.body
  %cmp18 = icmp eq i8 %conv.i, 0
  br i1 %cmp18, label %if.then19, label %if.end37

if.then19:                                        ; preds = %if.else
  %4 = add nsw i32 %shr.i, -4371
  %cmp.i = icmp ult i32 %4, -19
  br i1 %cmp.i, label %if.else32, label %if.then22

if.then22:                                        ; preds = %if.then19
  %5 = add nuw nsw i64 %indvars.iv, 1
  %6 = load i32, ptr %fLength.i, align 4
  %7 = sext i32 %6 to i64
  %cmp24 = icmp slt i64 %5, %7
  br i1 %cmp24, label %land.lhs.true25, label %if.end37

land.lhs.true25:                                  ; preds = %if.then22
  %arrayidx.i23 = getelementptr inbounds [31 x i32], ptr %buffer, i64 0, i64 %5
  %8 = load i32, ptr %arrayidx.i23, align 4
  %shr.i24 = ashr i32 %8, 8
  %9 = add nsw i32 %shr.i24, -4470
  %cmp.i26 = icmp ult i32 %9, -21
  br i1 %cmp.i26, label %if.end37, label %return

if.else32:                                        ; preds = %if.then19
  %call34 = tail call noundef ptr @_ZNK6icu_755Norms7getNormEi(ptr noundef nonnull align 8 dereferenceable(424) %this, i32 noundef %shr.i)
  br label %if.end37

if.end37:                                         ; preds = %if.then22, %land.lhs.true25, %if.else, %if.else32
  %starterNorm.1 = phi ptr [ %call34, %if.else32 ], [ %starterNorm.031, %if.else ], [ null, %land.lhs.true25 ], [ null, %if.then22 ]
  %indvars.iv.next = add nuw nsw i64 %indvars.iv, 1
  %10 = load i32, ptr %fLength.i, align 4
  %11 = sext i32 %10 to i64
  %cmp3 = icmp slt i64 %indvars.iv.next, %11
  br i1 %cmp3, label %for.body, label %return, !llvm.loop !9

return:                                           ; preds = %land.lhs.true13, %land.lhs.true25, %if.end37, %for.cond.preheader, %entry
  %retval.0 = phi i8 [ 0, %entry ], [ 0, %for.cond.preheader ], [ 1, %land.lhs.true13 ], [ 1, %land.lhs.true25 ], [ 0, %if.end37 ]
  ret i8 %retval.0
}